target datalayout = "e-m:e-p270:32:32-p271:32:32-p272:64:64-i64:64-i128:128-f80:128-n8:16:32:64-S128"
target triple = "x86_64-pc-linux-gnu"

%struct.translation_ctx_st = type { ptr, i32, i32, ptr, i32, i32, ptr, i64, ptr, ptr, [50 x i8], ptr, ptr, i64 }

; Function Attrs: nounwind uwtable
define internal i32 @fix_ecdh_cofactor(i32 noundef %0, ptr noundef %1, ptr noundef %2) #0 {
  %4 = alloca i32, align 4
  %5 = alloca i32, align 4
  %6 = alloca ptr, align 8
  %7 = alloca ptr, align 8
  %8 = alloca i32, align 4
  %9 = alloca i32, align 4
  store i32 %0, ptr %5, align 4, !tbaa !8
  store ptr %1, ptr %6, align 8, !tbaa !11
  store ptr %2, ptr %7, align 8, !tbaa !43
  call void @llvm.lifetime.start.p0(i64 4, ptr %8) #9
  store i32 0, ptr %8, align 4, !tbaa !8
  %10 = load i32, ptr %5, align 4, !tbaa !8
  %11 = icmp eq i32 %10, 1
  br i1 %11, label %12, label %38

12:                                               ; preds = %3
  %13 = load ptr, ptr %7, align 8, !tbaa !43
  %14 = getelementptr inbounds nuw %struct.translation_ctx_st, ptr %13, i32 0, i32 1
  %15 = load i32, ptr %14, align 8, !tbaa !35
  %16 = icmp eq i32 %15, 0
  %17 = zext i1 %16 to i32
  %18 = icmp ne i32 %17, 0
  %19 = xor i1 %18, true
  %20 = xor i1 %19, true
  %21 = zext i1 %20 to i32
  %22 = sext i32 %21 to i64
  %23 = call i64 @llvm.expect.i64(i64 %22, i64 1)
  %24 = icmp ne i64 %23, 0
  br i1 %24, label %26, label %25

25:                                               ; preds = %12
  store i32 0, ptr %4, align 4
  store i32 1, ptr %9, align 4
  br label %161

26:                                               ; preds = %12
  %27 = load ptr, ptr %7, align 8, !tbaa !43
  %28 = getelementptr inbounds nuw %struct.translation_ctx_st, ptr %27, i32 0, i32 5
  %29 = load i32, ptr %28, align 4, !tbaa !39
  %30 = icmp eq i32 %29, -2
  br i1 %30, label %31, label %34

31:                                               ; preds = %26
  %32 = load ptr, ptr %7, align 8, !tbaa !43
  %33 = getelementptr inbounds nuw %struct.translation_ctx_st, ptr %32, i32 0, i32 1
  store i32 1, ptr %33, align 8, !tbaa !35
  br label %37

34:                                               ; preds = %26
  %35 = load ptr, ptr %7, align 8, !tbaa !43
  %36 = getelementptr inbounds nuw %struct.translation_ctx_st, ptr %35, i32 0, i32 1
  store i32 2, ptr %36, align 8, !tbaa !35
  br label %37

37:                                               ; preds = %34, %31
  br label %76

38:                                               ; preds = %3
  %39 = load i32, ptr %5, align 4, !tbaa !8
  %40 = icmp eq i32 %39, 4
  br i1 %40, label %41, label %44

41:                                               ; preds = %38
  %42 = load ptr, ptr %7, align 8, !tbaa !43
  %43 = getelementptr inbounds nuw %struct.translation_ctx_st, ptr %42, i32 0, i32 1
  store i32 2, ptr %43, align 8, !tbaa !35
  br label %75

44:                                               ; preds = %38
  %45 = load i32, ptr %5, align 4, !tbaa !8
  %46 = icmp eq i32 %45, 7
  br i1 %46, label %47, label %62

47:                                               ; preds = %44
  %48 = load ptr, ptr %7, align 8, !tbaa !43
  %49 = getelementptr inbounds nuw %struct.translation_ctx_st, ptr %48, i32 0, i32 1
  %50 = load i32, ptr %49, align 8, !tbaa !35
  %51 = icmp ne i32 %50, 0
  %52 = zext i1 %51 to i32
  %53 = icmp ne i32 %52, 0
  %54 = xor i1 %53, true
  %55 = xor i1 %54, true
  %56 = zext i1 %55 to i32
  %57 = sext i32 %56 to i64
  %58 = call i64 @llvm.expect.i64(i64 %57, i64 1)
  %59 = icmp ne i64 %58, 0
  br i1 %59, label %61, label %60

60:                                               ; preds = %47
  store i32 0, ptr %4, align 4
  store i32 1, ptr %9, align 4
  br label %161

61:                                               ; preds = %47
  br label %74

62:                                               ; preds = %44
  %63 = load i32, ptr %5, align 4, !tbaa !8
  %64 = icmp eq i32 %63, 8
  br i1 %64, label %65, label %73

65:                                               ; preds = %62
  %66 = load ptr, ptr %7, align 8, !tbaa !43
  %67 = getelementptr inbounds nuw %struct.translation_ctx_st, ptr %66, i32 0, i32 1
  %68 = load i32, ptr %67, align 8, !tbaa !35
  %69 = icmp eq i32 %68, 0
  br i1 %69, label %70, label %73

70:                                               ; preds = %65
  %71 = load ptr, ptr %7, align 8, !tbaa !43
  %72 = getelementptr inbounds nuw %struct.translation_ctx_st, ptr %71, i32 0, i32 1
  store i32 1, ptr %72, align 8, !tbaa !35
  br label %73

73:                                               ; preds = %70, %65, %62
  br label %74

74:                                               ; preds = %73, %61
  br label %75

75:                                               ; preds = %74, %41
  br label %76

76:                                               ; preds = %75, %37
  %77 = load i32, ptr %5, align 4, !tbaa !8
  %78 = load ptr, ptr %6, align 8, !tbaa !11
  %79 = load ptr, ptr %7, align 8, !tbaa !43
  %80 = call i32 @default_check(i32 noundef %77, ptr noundef %78, ptr noundef %79)
  store i32 %80, ptr %8, align 4, !tbaa !8
  %81 = icmp sle i32 %80, 0
  br i1 %81, label %82, label %84

82:                                               ; preds = %76
  %83 = load i32, ptr %8, align 4, !tbaa !8
  store i32 %83, ptr %4, align 4
  store i32 1, ptr %9, align 4
  br label %161

84:                                               ; preds = %76
  %85 = load i32, ptr %5, align 4, !tbaa !8
  %86 = icmp eq i32 %85, 1
  br i1 %86, label %87, label %104

87:                                               ; preds = %84
  %88 = load ptr, ptr %7, align 8, !tbaa !43
  %89 = getelementptr inbounds nuw %struct.translation_ctx_st, ptr %88, i32 0, i32 1
  %90 = load i32, ptr %89, align 8, !tbaa !35
  %91 = icmp eq i32 %90, 2
  br i1 %91, label %92, label %104

92:                                               ; preds = %87
  %93 = load ptr, ptr %7, align 8, !tbaa !43
  %94 = getelementptr inbounds nuw %struct.translation_ctx_st, ptr %93, i32 0, i32 5
  %95 = load i32, ptr %94, align 4, !tbaa !39
  %96 = icmp slt i32 %95, -1
  br i1 %96, label %102, label %97

97:                                               ; preds = %92
  %98 = load ptr, ptr %7, align 8, !tbaa !43
  %99 = getelementptr inbounds nuw %struct.translation_ctx_st, ptr %98, i32 0, i32 5
  %100 = load i32, ptr %99, align 4, !tbaa !39
  %101 = icmp sgt i32 %100, 1
  br i1 %101, label %102, label %103

102:                                              ; preds = %97, %92
  store i32 -2, ptr %4, align 4
  store i32 1, ptr %9, align 4
  br label %161

103:                                              ; preds = %97
  br label %104

104:                                              ; preds = %103, %87, %84
  %105 = load i32, ptr %5, align 4, !tbaa !8
  %106 = load ptr, ptr %6, align 8, !tbaa !11
  %107 = load ptr, ptr %7, align 8, !tbaa !43
  %108 = call i32 @default_fixup_args(i32 noundef %105, ptr noundef %106, ptr noundef %107)
  store i32 %108, ptr %8, align 4, !tbaa !8
  %109 = icmp sle i32 %108, 0
  br i1 %109, label %110, label %112

110:                                              ; preds = %104
  %111 = load i32, ptr %8, align 4, !tbaa !8
  store i32 %111, ptr %4, align 4
  store i32 1, ptr %9, align 4
  br label %161

112:                                              ; preds = %104
  %113 = load i32, ptr %5, align 4, !tbaa !8
  %114 = icmp eq i32 %113, 2
  br i1 %114, label %115, label %134

115:                                              ; preds = %112
  %116 = load ptr, ptr %7, align 8, !tbaa !43
  %117 = getelementptr inbounds nuw %struct.translation_ctx_st, ptr %116, i32 0, i32 1
  %118 = load i32, ptr %117, align 8, !tbaa !35
  %119 = icmp eq i32 %118, 1
  br i1 %119, label %120, label %134

120:                                              ; preds = %115
  %121 = load ptr, ptr %7, align 8, !tbaa !43
  %122 = getelementptr inbounds nuw %struct.translation_ctx_st, ptr %121, i32 0, i32 5
  %123 = load i32, ptr %122, align 4, !tbaa !39
  %124 = icmp slt i32 %123, 0
  br i1 %124, label %130, label %125

125:                                              ; preds = %120
  %126 = load ptr, ptr %7, align 8, !tbaa !43
  %127 = getelementptr inbounds nuw %struct.translation_ctx_st, ptr %126, i32 0, i32 5
  %128 = load i32, ptr %127, align 4, !tbaa !39
  %129 = icmp sgt i32 %128, 1
  br i1 %129, label %130, label %133

130:                                              ; preds = %125, %120
  store i32 -1, ptr %8, align 4, !tbaa !8
  %131 = load ptr, ptr %7, align 8, !tbaa !43
  %132 = getelementptr inbounds nuw %struct.translation_ctx_st, ptr %131, i32 0, i32 5
  store i32 -1, ptr %132, align 4, !tbaa !39
  br label %133

133:                                              ; preds = %130, %125
  br label %159

134:                                              ; preds = %115, %112
  %135 = load i32, ptr %5, align 4, !tbaa !8
  %136 = icmp eq i32 %135, 7
  br i1 %136, label %137, label %145

137:                                              ; preds = %134
  %138 = load ptr, ptr %7, align 8, !tbaa !43
  %139 = getelementptr inbounds nuw %struct.translation_ctx_st, ptr %138, i32 0, i32 1
  %140 = load i32, ptr %139, align 8, !tbaa !35
  %141 = icmp eq i32 %140, 1
  br i1 %141, label %142, label %145

142:                                              ; preds = %137
  %143 = load ptr, ptr %7, align 8, !tbaa !43
  %144 = getelementptr inbounds nuw %struct.translation_ctx_st, ptr %143, i32 0, i32 5
  store i32 -2, ptr %144, align 4, !tbaa !39
  br label %158

145:                                              ; preds = %137, %134
  %146 = load i32, ptr %5, align 4, !tbaa !8
  %147 = icmp eq i32 %146, 8
  br i1 %147, label %148, label %157

148:                                              ; preds = %145
  %149 = load ptr, ptr %7, align 8, !tbaa !43
  %150 = getelementptr inbounds nuw %struct.translation_ctx_st, ptr %149, i32 0, i32 1
  %151 = load i32, ptr %150, align 8, !tbaa !35
  %152 = icmp eq i32 %151, 1
  br i1 %152, label %153, label %157

153:                                              ; preds = %148
  %154 = load i32, ptr %8, align 4, !tbaa !8
  %155 = load ptr, ptr %7, align 8, !tbaa !43
  %156 = getelementptr inbounds nuw %struct.translation_ctx_st, ptr %155, i32 0, i32 5
  store i32 %154, ptr %156, align 4, !tbaa !39
  br label %157

157:                                              ; preds = %153, %148, %145
  br label %158

158:                                              ; preds = %157, %142
  br label %159

159:                                              ; preds = %158, %133
  %160 = load i32, ptr %8, align 4, !tbaa !8
  store i32 %160, ptr %4, align 4
  store i32 1, ptr %9, align 4
  br label %161

161:                                              ; preds = %159, %110, %102, %82, %60, %25
  call void @llvm.lifetime.end.p0(i64 4, ptr %8) #9
  %162 = load i32, ptr %4, align 4
  ret i32 %162
}