; Function Attrs: nounwind uwtable
define internal i32 @fix_ecdh_cofactor(i32 noundef %0, ptr noundef captures(address_is_null) %1, ptr noundef %2) #0 {
  %4 = icmp eq i32 %0, 1
  br i1 %4, label %5, label %15

5:                                                ; preds = %3
  %6 = getelementptr inbounds nuw i8, ptr %2, i64 8
  %7 = load i32, ptr %6, align 8, !tbaa !29
  %8 = icmp eq i32 %7, 0
  br i1 %8, label %9, label %62, !prof !62

9:                                                ; preds = %5
  %10 = getelementptr inbounds nuw i8, ptr %2, i64 28
  %11 = load i32, ptr %10, align 4, !tbaa !34
  %12 = icmp eq i32 %11, -2
  br i1 %12, label %13, label %14

13:                                               ; preds = %9
  store i32 1, ptr %6, align 8, !tbaa !29
  br label %26

14:                                               ; preds = %9
  store i32 2, ptr %6, align 8, !tbaa !29
  br label %26

15:                                               ; preds = %3
  switch i32 %0, label %26 [
    i32 4, label %16
    i32 7, label %18
    i32 8, label %21
  ]

16:                                               ; preds = %15
  %17 = getelementptr inbounds nuw i8, ptr %2, i64 8
  store i32 2, ptr %17, align 8, !tbaa !29
  br label %26

18:                                               ; preds = %15
  %19 = getelementptr inbounds nuw i8, ptr %2, i64 8
  %20 = load i32, ptr %19, align 8, !tbaa !29
  %.not = icmp eq i32 %20, 0
  br i1 %.not, label %62, label %26, !prof !56

21:                                               ; preds = %15
  %22 = getelementptr inbounds nuw i8, ptr %2, i64 8
  %23 = load i32, ptr %22, align 8, !tbaa !29
  %24 = icmp eq i32 %23, 0
  br i1 %24, label %25, label %26

25:                                               ; preds = %21
  store i32 1, ptr %22, align 8, !tbaa !29
  br label %26

26:                                               ; preds = %15, %16, %21, %25, %18, %13, %14
  %27 = tail call fastcc i32 @default_check(i32 noundef %0, ptr noundef %1)
  %28 = icmp slt i32 %27, 1
  br i1 %28, label %62, label %29

29:                                               ; preds = %26
  br i1 %4, label %30, label %38

30:                                               ; preds = %29
  %31 = getelementptr inbounds nuw i8, ptr %2, i64 8
  %32 = load i32, ptr %31, align 8, !tbaa !29
  %33 = icmp eq i32 %32, 2
  br i1 %33, label %34, label %38

34:                                               ; preds = %30
  %35 = getelementptr inbounds nuw i8, ptr %2, i64 28
  %36 = load i32, ptr %35, align 4, !tbaa !34
  %37 = add i32 %36, -2
  %or.cond = icmp ult i32 %37, -3
  br i1 %or.cond, label %62, label %38

38:                                               ; preds = %34, %30, %29
  %39 = tail call i32 @default_fixup_args(i32 noundef %0, ptr noundef %1, ptr noundef %2)
  %40 = icmp slt i32 %39, 1
  br i1 %40, label %62, label %41

41:                                               ; preds = %38
  switch i32 %0, label %62 [
    i32 2, label %42
    i32 7, label %50
    i32 8, label %56
  ]

42:                                               ; preds = %41
  %43 = getelementptr inbounds nuw i8, ptr %2, i64 8
  %44 = load i32, ptr %43, align 8, !tbaa !29
  %45 = icmp eq i32 %44, 1
  br i1 %45, label %46, label %62

46:                                               ; preds = %42
  %47 = getelementptr inbounds nuw i8, ptr %2, i64 28
  %48 = load i32, ptr %47, align 4, !tbaa !34
  %or.cond43 = icmp ugt i32 %48, 1
  br i1 %or.cond43, label %49, label %62

49:                                               ; preds = %46
  store i32 -1, ptr %47, align 4, !tbaa !34
  br label %62

50:                                               ; preds = %41
  %51 = getelementptr inbounds nuw i8, ptr %2, i64 8
  %52 = load i32, ptr %51, align 8, !tbaa !29
  %53 = icmp eq i32 %52, 1
  br i1 %53, label %54, label %62

54:                                               ; preds = %50
  %55 = getelementptr inbounds nuw i8, ptr %2, i64 28
  store i32 -2, ptr %55, align 4, !tbaa !34
  br label %62

56:                                               ; preds = %41
  %57 = getelementptr inbounds nuw i8, ptr %2, i64 8
  %58 = load i32, ptr %57, align 8, !tbaa !29
  %59 = icmp eq i32 %58, 1
  br i1 %59, label %60, label %62

60:                                               ; preds = %56
  %61 = getelementptr inbounds nuw i8, ptr %2, i64 28
  store i32 %39, ptr %61, align 4, !tbaa !34
  br label %62

62:                                               ; preds = %50, %42, %49, %56, %60, %54, %46, %41, %38, %34, %26, %18, %5
  %.037 = phi i32 [ 0, %5 ], [ 0, %18 ], [ %27, %26 ], [ -2, %34 ], [ %39, %38 ], [ -1, %49 ], [ %39, %54 ], [ %39, %60 ], [ %39, %56 ], [ %39, %46 ], [ %39, %41 ], [ %39, %42 ], [ %39, %50 ]
  ret i32 %.037
}